; Function Attrs: mustprogress nofree norecurse nosync nounwind willreturn memory(read, inaccessiblemem: none) uwtable
define noundef i32 @_ZN6icu_7515AlphabeticIndex14getRecordCountER10UErrorCode(ptr nocapture noundef nonnull readonly align 8 dereferenceable(400) %this, ptr nocapture noundef nonnull readonly align 4 dereferenceable(4) %status) unnamed_addr #2 align 2 {
entry:
  %0 = load i32, ptr %status, align 4
  %cmp.i = icmp slt i32 %0, 1
  br i1 %cmp.i, label %lor.lhs.false, label %return

lor.lhs.false:                                    ; preds = %entry
  %inputList_ = getelementptr inbounds i8, ptr %this, i64 8
  %1 = load ptr, ptr %inputList_, align 8
  %cmp = icmp eq ptr %1, null
  br i1 %cmp, label %return, label %if.end

if.end:                                           ; preds = %lor.lhs.false
  %count.i = getelementptr inbounds i8, ptr %1, i64 8
  %2 = load i32, ptr %count.i, align 8
  br label %return

return:                                           ; preds = %entry, %lor.lhs.false, %if.end
  %retval.0 = phi i32 [ %2, %if.end ], [ 0, %lor.lhs.false ], [ 0, %entry ]
  ret i32 %retval.0
}